target datalayout = "e-m:e-p270:32:32-p271:32:32-p272:64:64-i64:64-i128:128-f80:128-n8:16:32:64-S128"
target triple = "x86_64-pc-linux-gnu"

%struct._generic_N_Vector = type { ptr, ptr, ptr }
%struct._N_VectorContent_Serial = type { i64, i32, ptr }

; Function Attrs: nounwind uwtable
define internal i32 @f1(double noundef %0, ptr noundef %1, ptr noundef %2, ptr noundef %3) #0 {
  %5 = alloca double, align 8
  %6 = alloca ptr, align 8
  %7 = alloca ptr, align 8
  %8 = alloca ptr, align 8
  %9 = alloca double, align 8
  %10 = alloca double, align 8
  store double %0, ptr %5, align 8, !tbaa !8
  store ptr %1, ptr %6, align 8, !tbaa !10
  store ptr %2, ptr %7, align 8, !tbaa !10
  store ptr %3, ptr %8, align 8, !tbaa !19
  call void @llvm.lifetime.start.p0(i64 8, ptr %9) #5
  call void @llvm.lifetime.start.p0(i64 8, ptr %10) #5
  %11 = load ptr, ptr %6, align 8, !tbaa !10
  %12 = getelementptr inbounds nuw %struct._generic_N_Vector, ptr %11, i32 0, i32 0
  %13 = load ptr, ptr %12, align 8, !tbaa !22
  %14 = getelementptr inbounds nuw %struct._N_VectorContent_Serial, ptr %13, i32 0, i32 2
  %15 = load ptr, ptr %14, align 8, !tbaa !25
  %16 = getelementptr inbounds double, ptr %15, i64 0
  %17 = load double, ptr %16, align 8, !tbaa !8
  store double %17, ptr %9, align 8, !tbaa !8
  %18 = load ptr, ptr %6, align 8, !tbaa !10
  %19 = getelementptr inbounds nuw %struct._generic_N_Vector, ptr %18, i32 0, i32 0
  %20 = load ptr, ptr %19, align 8, !tbaa !22
  %21 = getelementptr inbounds nuw %struct._N_VectorContent_Serial, ptr %20, i32 0, i32 2
  %22 = load ptr, ptr %21, align 8, !tbaa !25
  %23 = getelementptr inbounds double, ptr %22, i64 1
  %24 = load double, ptr %23, align 8, !tbaa !8
  store double %24, ptr %10, align 8, !tbaa !8
  %25 = load double, ptr %10, align 8, !tbaa !8
  %26 = load ptr, ptr %7, align 8, !tbaa !10
  %27 = getelementptr inbounds nuw %struct._generic_N_Vector, ptr %26, i32 0, i32 0
  %28 = load ptr, ptr %27, align 8, !tbaa !22
  %29 = getelementptr inbounds nuw %struct._N_VectorContent_Serial, ptr %28, i32 0, i32 2
  %30 = load ptr, ptr %29, align 8, !tbaa !25
  %31 = getelementptr inbounds double, ptr %30, i64 0
  store double %25, ptr %31, align 8, !tbaa !8
  %32 = load double, ptr %9, align 8, !tbaa !8
  %33 = load double, ptr %9, align 8, !tbaa !8
  %34 = fneg double %32
  %35 = call double @llvm.fmuladd.f64(double %34, double %33, double 1.000000e+00)
  %36 = fmul double %35, 3.000000e+00
  %37 = load double, ptr %10, align 8, !tbaa !8
  %38 = load double, ptr %9, align 8, !tbaa !8
  %39 = fneg double %38
  %40 = call double @llvm.fmuladd.f64(double %36, double %37, double %39)
  %41 = load ptr, ptr %7, align 8, !tbaa !10
  %42 = getelementptr inbounds nuw %struct._generic_N_Vector, ptr %41, i32 0, i32 0
  %43 = load ptr, ptr %42, align 8, !tbaa !22
  %44 = getelementptr inbounds nuw %struct._N_VectorContent_Serial, ptr %43, i32 0, i32 2
  %45 = load ptr, ptr %44, align 8, !tbaa !25
  %46 = getelementptr inbounds double, ptr %45, i64 1
  store double %40, ptr %46, align 8, !tbaa !8
  call void @llvm.lifetime.end.p0(i64 8, ptr %10) #5
  call void @llvm.lifetime.end.p0(i64 8, ptr %9) #5
  ret i32 0
}